target datalayout = "e-m:e-p270:32:32-p271:32:32-p272:64:64-i64:64-i128:128-f80:128-n8:16:32:64-S128"
target triple = "x86_64-pc-linux-gnu"

%struct.paramType = type { i32, ptr, ptr, i32 }
%struct.playparamType = type { i32, ptr, ptr, i32 }
%struct.deal = type { i32, i32, [3 x i32], [3 x i32], [4 x [4 x i32]] }
%struct.playTraceBin = type { i32, [52 x i32], [52 x i32] }
%struct.solvedPlay = type { i32, [53 x i32] }
%struct.boards = type { i32, [200 x %struct.deal], [200 x i32], [200 x i32], [200 x i32] }
%struct.playTracesBin = type { i32, [200 x %struct.playTraceBin] }
%struct.solvedPlays = type { i32, [200 x %struct.solvedPlay] }

@playparam = global %struct.paramType zeroinitializer, align 8
@traceparam = global %struct.playparamType zeroinitializer, align 8

; Function Attrs: mustprogress uwtable
define void @_Z16PlaySingleCommonii(i32 noundef %0, i32 noundef %1) #4 {
  %3 = alloca i32, align 4
  %4 = alloca i32, align 4
  %5 = alloca %struct.solvedPlay, align 4
  %6 = alloca i32, align 4
  %7 = alloca %struct.deal, align 8
  %8 = alloca %struct.playTraceBin, align 8
  store i32 %0, ptr %3, align 4
  store i32 %1, ptr %4, align 4
  %9 = load ptr, ptr getelementptr inbounds nuw (%struct.paramType, ptr @playparam, i32 0, i32 1), align 8
  %10 = getelementptr inbounds nuw %struct.boards, ptr %9, i32 0, i32 1
  %11 = load i32, ptr %4, align 4
  %12 = sext i32 %11 to i64
  %13 = getelementptr inbounds [200 x %struct.deal], ptr %10, i64 0, i64 %12
  call void @llvm.memcpy.p0.p0.i64(ptr align 4 %7, ptr align 4 %13, i64 96, i1 false)
  %14 = load ptr, ptr getelementptr inbounds nuw (%struct.playparamType, ptr @traceparam, i32 0, i32 1), align 8
  %15 = getelementptr inbounds nuw %struct.playTracesBin, ptr %14, i32 0, i32 1
  %16 = load i32, ptr %4, align 4
  %17 = sext i32 %16 to i64
  %18 = getelementptr inbounds [200 x %struct.playTraceBin], ptr %15, i64 0, i64 %17
  call void @llvm.memcpy.p0.p0.i64(ptr align 4 %8, ptr align 4 %18, i64 420, i1 false)
  %19 = load i32, ptr %3, align 4
  %20 = call i32 @AnalysePlayBin(ptr noundef byval(%struct.deal) align 8 %7, ptr noundef byval(%struct.playTraceBin) align 8 %8, ptr noundef %5, i32 noundef %19)
  store i32 %20, ptr %6, align 4
  %21 = load i32, ptr %6, align 4
  %22 = icmp eq i32 %21, 1
  br i1 %22, label %23, label %29

23:                                               ; preds = %2
  %24 = load ptr, ptr getelementptr inbounds nuw (%struct.playparamType, ptr @traceparam, i32 0, i32 2), align 8
  %25 = getelementptr inbounds nuw %struct.solvedPlays, ptr %24, i32 0, i32 1
  %26 = load i32, ptr %4, align 4
  %27 = sext i32 %26 to i64
  %28 = getelementptr inbounds [200 x %struct.solvedPlay], ptr %25, i64 0, i64 %27
  call void @llvm.memcpy.p0.p0.i64(ptr align 4 %28, ptr align 4 %5, i64 216, i1 false)
  br label %31

29:                                               ; preds = %2
  %30 = load i32, ptr %6, align 4
  store i32 %30, ptr getelementptr inbounds nuw (%struct.paramType, ptr @playparam, i32 0, i32 3), align 8
  br label %31

31:                                               ; preds = %29, %23
  ret void
}