; Function Attrs: mustprogress uwtable
define void @_Z16PlaySingleCommonii(i32 noundef %0, i32 noundef %1) local_unnamed_addr #3 {
  %3 = alloca %struct.solvedPlay, align 4
  %4 = alloca %struct.deal, align 8
  %5 = alloca %struct.playTraceBin, align 8
  %6 = load ptr, ptr getelementptr inbounds nuw (i8, ptr @playparam, i64 8), align 8
  %7 = getelementptr inbounds nuw i8, ptr %6, i64 4
  %8 = sext i32 %1 to i64
  %9 = getelementptr inbounds [200 x %struct.deal], ptr %7, i64 0, i64 %8
  call void @llvm.memcpy.p0.p0.i64(ptr noundef nonnull align 8 dereferenceable(96) %4, ptr noundef nonnull align 4 dereferenceable(96) %9, i64 96, i1 false)
  %10 = load ptr, ptr getelementptr inbounds nuw (i8, ptr @traceparam, i64 8), align 8
  %11 = getelementptr inbounds nuw i8, ptr %10, i64 4
  %12 = getelementptr inbounds [200 x %struct.playTraceBin], ptr %11, i64 0, i64 %8
  call void @llvm.memcpy.p0.p0.i64(ptr noundef nonnull align 8 dereferenceable(420) %5, ptr noundef nonnull align 4 dereferenceable(420) %12, i64 420, i1 false)
  %13 = call i32 @AnalysePlayBin(ptr noundef nonnull byval(%struct.deal) align 8 %4, ptr noundef nonnull byval(%struct.playTraceBin) align 8 %5, ptr noundef nonnull %3, i32 noundef %0)
  %14 = icmp eq i32 %13, 1
  br i1 %14, label %15, label %19

15:                                               ; preds = %2
  %16 = load ptr, ptr getelementptr inbounds nuw (i8, ptr @traceparam, i64 16), align 8
  %17 = getelementptr inbounds nuw i8, ptr %16, i64 4
  %18 = getelementptr inbounds [200 x %struct.solvedPlay], ptr %17, i64 0, i64 %8
  call void @llvm.memcpy.p0.p0.i64(ptr noundef nonnull align 4 dereferenceable(216) %18, ptr noundef nonnull align 4 dereferenceable(216) %3, i64 216, i1 false)
  br label %20

19:                                               ; preds = %2
  store i32 %13, ptr getelementptr inbounds nuw (i8, ptr @playparam, i64 24), align 8
  br label %20

20:                                               ; preds = %19, %15
  ret void
}